ccopy_reg
_reconstructor
p0
(cpaillier.paillier
PrivateKey
p1
c__builtin__
object
p2
Ntp3
Rp4
(dp5
S'm'
p6
L2496756063714143275833621707259885166L
sS'l'
p7
L121701367582498850071013562161220884256L
sb.